target datalayout = "e-m:e-p270:32:32-p271:32:32-p272:64:64-i64:64-i128:128-f80:128-n8:16:32:64-S128"
target triple = "x86_64-pc-linux-gnu"

@hf_gsm_a_gm_nsapi = internal global i32 0, align 4
@.str.1090 = private unnamed_addr constant [18 x i8] c"NSAPI %d: %s (%u)\00", align 1
@pdp_str = internal global [2 x ptr] [ptr @.str.1091, ptr @.str.1092], align 16

; Function Attrs: null_pointer_is_valid sspstrong uwtable
define internal zeroext i16 @de_gc_mbms_context_stat(ptr noundef %0, ptr noundef %1, ptr noundef %2, i32 noundef %3, i32 noundef %4, ptr noundef %5, i32 noundef %6) #1 {
  %8 = alloca ptr, align 8
  %9 = alloca ptr, align 8
  %10 = alloca ptr, align 8
  %11 = alloca i32, align 4
  %12 = alloca i32, align 4
  %13 = alloca ptr, align 8
  %14 = alloca i32, align 4
  %15 = alloca i32, align 4
  %16 = alloca i32, align 4
  %17 = alloca i8, align 1
  %18 = alloca i8, align 1
  store ptr %0, ptr %8, align 8
  store ptr %1, ptr %9, align 8
  store ptr %2, ptr %10, align 8
  store i32 %3, ptr %11, align 4
  store i32 %4, ptr %12, align 4
  store ptr %5, ptr %13, align 8
  store i32 %6, ptr %14, align 4
  call void @llvm.lifetime.start.p0(i64 4, ptr %15) #6
  call void @llvm.lifetime.start.p0(i64 4, ptr %16) #6
  call void @llvm.lifetime.start.p0(i64 1, ptr %17) #6
  call void @llvm.lifetime.start.p0(i64 1, ptr %18) #6
  %19 = load i32, ptr %11, align 4
  store i32 %19, ptr %15, align 4
  store i32 0, ptr %16, align 4
  br label %20

20:                                               ; preds = %66, %7
  %21 = load i32, ptr %16, align 4
  %22 = load i32, ptr %12, align 4
  %23 = icmp ult i32 %21, %22
  br i1 %23, label %24, label %69

24:                                               ; preds = %20
  %25 = load ptr, ptr %8, align 8
  %26 = load i32, ptr %15, align 4
  %27 = call zeroext i8 @tvb_get_uint8(ptr noundef %25, i32 noundef %26)
  store i8 %27, ptr %17, align 1
  store i8 0, ptr %18, align 1
  br label %28

28:                                               ; preds = %60, %24
  %29 = load i8, ptr %18, align 1
  %30 = zext i8 %29 to i32
  %31 = icmp slt i32 %30, 8
  br i1 %31, label %32, label %63

32:                                               ; preds = %28
  %33 = load ptr, ptr %9, align 8
  %34 = load i32, ptr @hf_gsm_a_gm_nsapi, align 4
  %35 = load ptr, ptr %8, align 8
  %36 = load i32, ptr %15, align 4
  %37 = load i8, ptr %17, align 1
  %38 = zext i8 %37 to i32
  %39 = and i32 %38, 1
  %40 = load i32, ptr %16, align 4
  %41 = mul i32 %40, 8
  %42 = add i32 128, %41
  %43 = load i8, ptr %18, align 1
  %44 = zext i8 %43 to i32
  %45 = add i32 %42, %44
  %46 = load i8, ptr %17, align 1
  %47 = zext i8 %46 to i32
  %48 = and i32 %47, 1
  %49 = sext i32 %48 to i64
  %50 = getelementptr [2 x ptr], ptr @pdp_str, i64 0, i64 %49
  %51 = load ptr, ptr %50, align 8
  %52 = load i8, ptr %17, align 1
  %53 = zext i8 %52 to i32
  %54 = and i32 %53, 1
  %55 = call ptr (ptr, i32, ptr, i32, i32, i32, ptr, ...) @proto_tree_add_uint_format(ptr noundef %33, i32 noundef %34, ptr noundef %35, i32 noundef %36, i32 noundef 1, i32 noundef %39, ptr noundef @.str.1090, i32 noundef %45, ptr noundef %51, i32 noundef %54)
  %56 = load i8, ptr %17, align 1
  %57 = zext i8 %56 to i32
  %58 = ashr i32 %57, 1
  %59 = trunc i32 %58 to i8
  store i8 %59, ptr %17, align 1
  br label %60

60:                                               ; preds = %32
  %61 = load i8, ptr %18, align 1
  %62 = add i8 %61, 1
  store i8 %62, ptr %18, align 1
  br label %28, !llvm.loop !20

63:                                               ; preds = %28
  %64 = load i32, ptr %15, align 4
  %65 = add i32 %64, 1
  store i32 %65, ptr %15, align 4
  br label %66

66:                                               ; preds = %63
  %67 = load i32, ptr %16, align 4
  %68 = add i32 %67, 1
  store i32 %68, ptr %16, align 4
  br label %20, !llvm.loop !21

69:                                               ; preds = %20
  %70 = load i32, ptr %12, align 4
  %71 = trunc i32 %70 to i16
  call void @llvm.lifetime.end.p0(i64 1, ptr %18) #6
  call void @llvm.lifetime.end.p0(i64 1, ptr %17) #6
  call void @llvm.lifetime.end.p0(i64 4, ptr %16) #6
  call void @llvm.lifetime.end.p0(i64 4, ptr %15) #6
  ret i16 %71
}