; Function Attrs: null_pointer_is_valid sspstrong uwtable
define internal noundef zeroext i16 @de_gc_mbms_context_stat(ptr noundef %0, ptr noundef %1, ptr readnone captures(none) %2, i32 noundef %3, i32 noundef %4, ptr readnone captures(none) %5, i32 %6) #1 {
  %.not = icmp eq i32 %4, 0
  br i1 %.not, label %._crit_edge, label %.lr.ph

.lr.ph:                                           ; preds = %7, %21
  %.01926 = phi i32 [ %23, %21 ], [ 0, %7 ]
  %.02025 = phi i32 [ %22, %21 ], [ %3, %7 ]
  %8 = tail call zeroext i8 @tvb_get_uint8(ptr noundef %0, i32 noundef %.02025)
  %9 = shl i32 %.01926, 3
  %10 = add i32 %9, 128
  br label %11

11:                                               ; preds = %.lr.ph, %11
  %indvars.iv = phi i32 [ 0, %.lr.ph ], [ %indvars.iv.next, %11 ]
  %.01823 = phi i8 [ %8, %.lr.ph ], [ %20, %11 ]
  %12 = load i32, ptr @hf_gsm_a_gm_nsapi, align 4
  %13 = and i8 %.01823, 1
  %14 = zext nneg i8 %13 to i32
  %15 = add nuw nsw i32 %10, %indvars.iv
  %16 = zext nneg i8 %13 to i64
  %17 = getelementptr [2 x ptr], ptr @pdp_str, i64 0, i64 %16
  %18 = load ptr, ptr %17, align 8
  %19 = tail call ptr (ptr, i32, ptr, i32, i32, i32, ptr, ...) @proto_tree_add_uint_format(ptr noundef %1, i32 noundef %12, ptr noundef %0, i32 noundef %.02025, i32 noundef 1, i32 noundef %14, ptr noundef nonnull @.str.1090, i32 noundef %15, ptr noundef %18, i32 noundef %14)
  %20 = lshr i8 %.01823, 1
  %indvars.iv.next = add nuw nsw i32 %indvars.iv, 1
  %exitcond.not = icmp eq i32 %indvars.iv.next, 8
  br i1 %exitcond.not, label %21, label %11, !llvm.loop !17

21:                                               ; preds = %11
  %22 = add i32 %.02025, 1
  %23 = add nuw i32 %.01926, 1
  %exitcond28.not = icmp eq i32 %23, %4
  br i1 %exitcond28.not, label %._crit_edge, label %.lr.ph, !llvm.loop !18

._crit_edge:                                      ; preds = %21, %7
  %24 = trunc i32 %4 to i16
  ret i16 %24
}